; Function Attrs: mustprogress uwtable
define void @_ZN6icu_756number4impl22MutablePatternModifier12prepareAffixEb(ptr noundef nonnull align 8 dereferenceable(392) %this, i1 noundef zeroext %isPrefix) local_unnamed_addr #1 align 2 {
entry:
  %fPatternInfo = getelementptr inbounds i8, ptr %this, i64 32
  %0 = load ptr, ptr %fPatternInfo, align 8
  %fSignDisplay = getelementptr inbounds i8, ptr %this, i64 44
  %1 = load i32, ptr %fSignDisplay, align 4
  %fSignum = getelementptr inbounds i8, ptr %this, i64 312
  %2 = load i32, ptr %fSignum, align 8
  %call = tail call noundef i32 @_ZN6icu_756number4impl18PatternStringUtils18resolveSignDisplayE18UNumberSignDisplayNS1_6SignumE(i32 noundef %1, i32 noundef %2)
  %fPlural = getelementptr inbounds i8, ptr %this, i64 316
  %3 = load i32, ptr %fPlural, align 4
  %fPerMilleReplacesPercent = getelementptr inbounds i8, ptr %this, i64 48
  %4 = load <2 x i8>, ptr %fPerMilleReplacesPercent, align 8
  %5 = trunc <2 x i8> %4 to <2 x i1>
  %currentAffix = getelementptr inbounds i8, ptr %this, i64 328
  %6 = extractelement <2 x i1> %5, i64 0
  %7 = extractelement <2 x i1> %5, i64 1
  tail call void @_ZN6icu_756number4impl18PatternStringUtils26patternInfoToStringBuilderERKNS1_20AffixPatternProviderEbNS1_15PatternSignTypeEbNS_14StandardPlural4FormEbbRNS_13UnicodeStringE(ptr noundef nonnull align 8 dereferenceable(8) %0, i1 noundef zeroext %isPrefix, i32 noundef %call, i1 noundef zeroext %7, i32 noundef %3, i1 noundef zeroext %6, i1 noundef zeroext false, ptr noundef nonnull align 8 dereferenceable(64) %currentAffix)
  ret void
}